(lp0
(dp1
Vname
p2
Vunknown
p3
sa(dp4
g2
Vother
p5
sa(dp6
g2
Vanthrax cutaneous
p7
sa(dp8
g2
Vanthrax gastrointestinous
p9
sa(dp10
g2
Vanthrax inhalation
p11
sa(dp12
g2
Vbotulism
p13
sa(dp14
g2
Vbrucellosis
p15
sa(dp16
g2
Vchikungunya
p17
sa(dp18
g2
Vcholera
p19
sa(dp20
g2
Vcryptococcosis
p21
sa(dp22
g2
Vcryptosporidiosis
p23
sa(dp24
g2
Vcrimean-congo haemorrhagic fever
p25
sa(dp26
g2
Vdengue
p27
sa(dp28
g2
Vdiphteria
p29
sa(dp30
g2
Vebola haemorrhagic fever
p31
sa(dp32
g2
Vehec (e.coli)
p33
sa(dp34
g2
Venterovirus 71 infection
p35
sa(dp36
g2
Vinfluenza a/h5n1
p37
sa(dp38
g2
Vinfluenza a/h7n9
p39
sa(dp40
g2
Vinfluenza a/h9n2
p41
sa(dp42
g2
Vinfluenza a/h1n1
p43
sa(dp44
g2
Vinfluenza a/h1n2
p45
sa(dp46
g2
Vinfluenza a/h3n5
p47
sa(dp48
g2
Vinfluenza a/h3n2
p49
sa(dp50
g2
Vinfluenza a/h2n2
p51
sa(dp52
g2
Vhand, foot and mouth disease
p53
sa(dp54
g2
Vhantavirus
p55
sa(dp56
g2
Vhepatitis a
p57
sa(dp58
g2
Vhepatitis b
p59
sa(dp60
g2
Vhepatitis c
p61
sa(dp62
g2
Vhepatitis d
p63
sa(dp64
g2
Vhepatitis e
p65
sa(dp66
g2
Vhistoplasmosis
p67
sa(dp68
g2
Vhiv/aids
p69
sa(dp70
g2
Vlassa fever
p71
sa(dp72
g2
Vmalaria
p73
sa(dp74
g2
Vmarburg virus disease
p75
sa(dp76
g2
Vmeasles
p77
sa(dp78
g2
Vmers-cov
p79
sa(dp80
g2
Vmumps
p81
sa(dp82
g2
Vnipah virus
p83
sa(dp84
g2
Vnorovirus infection
p85
sa(dp86
g2
Vpertussis
p87
sa(dp88
g2
Vplague
p89
sa(dp90
g2
Vpneumococcus pneumonia
p91
sa(dp92
g2
Vpoliomyelitis
p93
sa(dp94
g2
Vq fever
p95
sa(dp96
g2
Vrabies
p97
sa(dp98
g2
Vrift valley fever
p99
sa(dp100
g2
Vrotavirus infection
p101
sa(dp102
g2
Vrubella
p103
sa(dp104
g2
Vsalmonellosis
p105
sa(dp106
g2
Vsars
p107
sa(dp108
g2
Vshigellosis
p109
sa(dp110
g2
Vsmallpox
p111
sa(dp112
g2
Vstaphylococcal enterotoxin b
p113
sa(dp114
g2
Vthypoid fever
p115
sa(dp116
g2
Vtuberculosis
p117
sa(dp118
g2
Vtularemia
p119
sa(dp120
g2
Vvaccinia and cowpox
p121
sa(dp122
g2
Vvaricella
p123
sa(dp124
g2
Vwest nile virus
p125
sa(dp126
g2
Vyellow fever
p127
sa(dp128
g2
Vyersiniosis
p129
sa(dp130
g2
Vzika
p131
sa(dp132
g2
Vlegionares
p133
sa(dp134
g2
Vlisteriosis
p135
sa(dp136
g2
Vmonkeypox
p137
sa(dp138
g2
VCOVID-19
p139
sa.